target datalayout = "e-m:e-p270:32:32-p271:32:32-p272:64:64-i64:64-i128:128-f80:128-n8:16:32:64-S128"
target triple = "x86_64-pc-linux-gnu"

%struct.__va_list_tag = type { i32, i32, ptr, ptr }

@stderr = external global ptr, align 8
@.str.47 = private unnamed_addr constant [10 x i8] c"plytool: \00", align 1
@.str.48 = private unnamed_addr constant [3 x i8] c"\0A\0A\00", align 1

; Function Attrs: mustprogress uwtable
define internal void @_ZL5usagePKcz(ptr noundef %0, ...) #1 {
  %2 = alloca ptr, align 8
  %3 = alloca [1 x %struct.__va_list_tag], align 16
  store ptr %0, ptr %2, align 8, !tbaa !21
  %4 = load ptr, ptr %2, align 8, !tbaa !21
  %5 = icmp ne ptr %4, null
  br i1 %5, label %6, label %16

6:                                                ; preds = %1
  call void @llvm.lifetime.start.p0(i64 24, ptr %3) #27
  %7 = getelementptr inbounds [1 x %struct.__va_list_tag], ptr %3, i64 0, i64 0
  call void @llvm.va_start.p0(ptr %7)
  %8 = load ptr, ptr @stderr, align 8, !tbaa !23
  %9 = call i32 (ptr, ptr, ...) @fprintf(ptr noundef %8, ptr noundef @.str.47) #27
  %10 = load ptr, ptr @stderr, align 8, !tbaa !23
  %11 = load ptr, ptr %2, align 8, !tbaa !21
  %12 = getelementptr inbounds [1 x %struct.__va_list_tag], ptr %3, i64 0, i64 0
  %13 = call i32 @vfprintf(ptr noundef %10, ptr noundef %11, ptr noundef %12) #27
  %14 = load ptr, ptr @stderr, align 8, !tbaa !23
  %15 = call i32 (ptr, ptr, ...) @fprintf(ptr noundef %14, ptr noundef @.str.48) #27
  call void @llvm.lifetime.end.p0(i64 24, ptr %3) #27
  br label %16

16:                                               ; preds = %6, %1
  call void @_ZL4helpv()
  call void @exit(i32 noundef 1) #28
  unreachable
}