; Function Attrs: cold mustprogress nofree noreturn nounwind uwtable
define internal void @_ZL5usagePKcz(ptr noundef readonly %0, ...) unnamed_addr #3 {
  %2 = alloca [1 x %struct.__va_list_tag], align 16
  %.not = icmp eq ptr %0, null
  br i1 %.not, label %10, label %3

3:                                                ; preds = %1
  call void @llvm.lifetime.start.p0(i64 24, ptr nonnull %2) #33
  call void @llvm.va_start.p0(ptr nonnull %2)
  %4 = load ptr, ptr @stderr, align 8, !tbaa !18
  %5 = call i64 @fwrite(ptr nonnull @.str.47, i64 9, i64 1, ptr %4) #35
  %6 = load ptr, ptr @stderr, align 8, !tbaa !18
  %7 = call i32 @vfprintf(ptr noundef %6, ptr noundef nonnull %0, ptr noundef nonnull %2) #36
  %8 = load ptr, ptr @stderr, align 8, !tbaa !18
  %9 = call i64 @fwrite(ptr nonnull @.str.48, i64 2, i64 1, ptr %8) #35
  call void @llvm.lifetime.end.p0(i64 24, ptr nonnull %2) #33
  br label %10

10:                                               ; preds = %3, %1
  call fastcc void @_ZL4helpv()
  call void @exit(i32 noundef 1) #37
  unreachable
}